; Function Attrs: nounwind uwtable
define dso_local void @pq_endmessage_reuse(ptr noundef readonly captures(none) %0) local_unnamed_addr #0 {
  %2 = load ptr, ptr @PqCommMethods, align 8
  %3 = getelementptr inbounds nuw i8, ptr %2, i64 32
  %4 = load ptr, ptr %3, align 8
  %5 = getelementptr inbounds nuw i8, ptr %0, i64 16
  %6 = load i32, ptr %5, align 8
  %7 = trunc i32 %6 to i8
  %8 = load ptr, ptr %0, align 8
  %9 = getelementptr inbounds nuw i8, ptr %0, i64 8
  %10 = load i32, ptr %9, align 8
  %11 = sext i32 %10 to i64
  %12 = tail call i32 %4(i8 noundef signext %7, ptr noundef %8, i64 noundef %11) #9
  ret void
}